target datalayout = "e-m:e-p270:32:32-p271:32:32-p272:64:64-i64:64-i128:128-f80:128-n8:16:32:64-S128"
target triple = "x86_64-pc-linux-gnu"

%struct.sharedObjectsStruct = type { ptr, ptr, ptr, ptr, ptr, ptr, ptr, ptr, [4 x ptr], [4 x ptr], [4 x ptr], [4 x ptr], ptr, ptr, ptr, ptr, ptr, ptr, ptr, ptr, ptr, ptr, ptr, ptr, ptr, ptr, ptr, ptr, ptr, ptr, ptr, ptr, ptr, ptr, ptr, ptr, ptr, ptr, ptr, ptr, ptr, ptr, ptr, ptr, ptr, ptr, ptr, ptr, ptr, ptr, ptr, ptr, ptr, ptr, ptr, ptr, ptr, ptr, ptr, ptr, ptr, ptr, ptr, ptr, ptr, ptr, ptr, ptr, ptr, ptr, ptr, ptr, ptr, ptr, ptr, ptr, ptr, ptr, ptr, ptr, ptr, ptr, ptr, ptr, ptr, ptr, ptr, ptr, [10 x ptr], [10000 x ptr], [32 x ptr], [32 x ptr], [32 x ptr], [32 x ptr], ptr, ptr }
%struct.client = type { i64, i64, ptr, i8, i8, i8, i8, i32, ptr, ptr, ptr, ptr, ptr, i64, i64, i32, ptr, i32, i32, ptr, i64, ptr, ptr, ptr, ptr, ptr, i32, i32, i64, ptr, i64, ptr, i64, i64, i64, i32, ptr, i64, i64, i32, i32, i32, i32, i64, i64, ptr, i64, i64, i64, i64, i64, i64, i64, i64, [41 x i8], i32, ptr, i32, i32, i64, %struct.multiState, %struct.blockingState, i64, ptr, ptr, ptr, ptr, ptr, ptr, ptr, ptr, ptr, ptr, ptr, ptr, ptr, ptr, i64, ptr, i64, i32, ptr, ptr, ptr, i64, %struct.listNode, i64, i64, i32, i64, ptr }
%struct.multiState = type { ptr, i32, i32, i32, i64, i32 }
%struct.blockingState = type { i32, i64, i32, ptr, i32, i32, i64, ptr, ptr, i64 }
%struct.listNode = type { ptr, ptr, ptr }
%struct.dict = type { ptr, [2 x ptr], [2 x i64], i64, i16, [2 x i8], i16, [0 x ptr] }
%struct.pubsubtype = type { i32, ptr, ptr, ptr, ptr, ptr, ptr }

@shared = external global %struct.sharedObjectsStruct, align 8

; Function Attrs: nounwind uwtable
define dso_local void @addReplyPubsubUnsubscribed(ptr noundef %0, ptr noundef %1, ptr noundef byval(%struct.pubsubtype) align 8 %2) #0 {
  %4 = alloca ptr, align 8
  %5 = alloca ptr, align 8
  %6 = alloca i64, align 8
  store ptr %0, ptr %4, align 8, !tbaa !5
  store ptr %1, ptr %5, align 8, !tbaa !33
  call void @llvm.lifetime.start.p0(i64 8, ptr %6) #8
  %7 = load ptr, ptr %4, align 8, !tbaa !5
  %8 = getelementptr inbounds nuw %struct.client, ptr %7, i32 0, i32 1
  %9 = load i64, ptr %8, align 8, !tbaa !34
  store i64 %9, ptr %6, align 8, !tbaa !30
  %10 = load ptr, ptr %4, align 8, !tbaa !5
  %11 = getelementptr inbounds nuw %struct.client, ptr %10, i32 0, i32 1
  %12 = load i64, ptr %11, align 8, !tbaa !34
  %13 = or i64 %12, 70368744177664
  store i64 %13, ptr %11, align 8, !tbaa !34
  %14 = load ptr, ptr %4, align 8, !tbaa !5
  %15 = getelementptr inbounds nuw %struct.client, ptr %14, i32 0, i32 7
  %16 = load i32, ptr %15, align 4, !tbaa !35
  %17 = icmp eq i32 %16, 2
  br i1 %17, label %18, label %21

18:                                               ; preds = %3
  %19 = load ptr, ptr %4, align 8, !tbaa !5
  %20 = load ptr, ptr getelementptr inbounds ([32 x ptr], ptr getelementptr inbounds nuw (%struct.sharedObjectsStruct, ptr @shared, i32 0, i32 90), i64 0, i64 3), align 8, !tbaa !33
  call void @addReply(ptr noundef %19, ptr noundef %20)
  br label %23

21:                                               ; preds = %3
  %22 = load ptr, ptr %4, align 8, !tbaa !5
  call void @addReplyPushLen(ptr noundef %22, i64 noundef 3)
  br label %23

23:                                               ; preds = %21, %18
  %24 = load ptr, ptr %4, align 8, !tbaa !5
  %25 = getelementptr inbounds nuw %struct.pubsubtype, ptr %2, i32 0, i32 5
  %26 = load ptr, ptr %25, align 8, !tbaa !42
  %27 = load ptr, ptr %26, align 8, !tbaa !33
  call void @addReply(ptr noundef %24, ptr noundef %27)
  %28 = load ptr, ptr %5, align 8, !tbaa !33
  %29 = icmp ne ptr %28, null
  br i1 %29, label %30, label %33

30:                                               ; preds = %23
  %31 = load ptr, ptr %4, align 8, !tbaa !5
  %32 = load ptr, ptr %5, align 8, !tbaa !33
  call void @addReplyBulk(ptr noundef %31, ptr noundef %32)
  br label %35

33:                                               ; preds = %23
  %34 = load ptr, ptr %4, align 8, !tbaa !5
  call void @addReplyNull(ptr noundef %34)
  br label %35

35:                                               ; preds = %33, %30
  %36 = load ptr, ptr %4, align 8, !tbaa !5
  %37 = getelementptr inbounds nuw %struct.pubsubtype, ptr %2, i32 0, i32 2
  %38 = load ptr, ptr %37, align 8, !tbaa !41
  %39 = load ptr, ptr %4, align 8, !tbaa !5
  %40 = call i32 %38(ptr noundef %39)
  %41 = sext i32 %40 to i64
  call void @addReplyLongLong(ptr noundef %36, i64 noundef %41)
  %42 = load i64, ptr %6, align 8, !tbaa !30
  %43 = and i64 %42, 70368744177664
  %44 = icmp ne i64 %43, 0
  br i1 %44, label %50, label %45

45:                                               ; preds = %35
  %46 = load ptr, ptr %4, align 8, !tbaa !5
  %47 = getelementptr inbounds nuw %struct.client, ptr %46, i32 0, i32 1
  %48 = load i64, ptr %47, align 8, !tbaa !34
  %49 = and i64 %48, -70368744177665
  store i64 %49, ptr %47, align 8, !tbaa !34
  br label %50

50:                                               ; preds = %45, %35
  call void @llvm.lifetime.end.p0(i64 8, ptr %6) #8
  ret void
}

; Function Attrs: nounwind uwtable
define dso_local i32 @pubsubUnsubscribeAllChannelsInternal(ptr noundef %0, i32 noundef %1, ptr noundef byval(%struct.pubsubtype) align 8 %2) #0 {
  %4 = alloca ptr, align 8
  %5 = alloca i32, align 4
  %6 = alloca i32, align 4
  %7 = alloca ptr, align 8
  %8 = alloca ptr, align 8
  %9 = alloca ptr, align 8
  store ptr %0, ptr %4, align 8, !tbaa !5
  store i32 %1, ptr %5, align 4, !tbaa !69
  call void @llvm.lifetime.start.p0(i64 4, ptr %6) #8
  store i32 0, ptr %6, align 4, !tbaa !69
  %10 = getelementptr inbounds nuw %struct.pubsubtype, ptr %2, i32 0, i32 1
  %11 = load ptr, ptr %10, align 8, !tbaa !70
  %12 = load ptr, ptr %4, align 8, !tbaa !5
  %13 = call ptr %11(ptr noundef %12)
  %14 = getelementptr inbounds nuw %struct.dict, ptr %13, i32 0, i32 2
  %15 = getelementptr inbounds [2 x i64], ptr %14, i64 0, i64 0
  %16 = load i64, ptr %15, align 8, !tbaa !30
  %17 = getelementptr inbounds nuw %struct.pubsubtype, ptr %2, i32 0, i32 1
  %18 = load ptr, ptr %17, align 8, !tbaa !70
  %19 = load ptr, ptr %4, align 8, !tbaa !5
  %20 = call ptr %18(ptr noundef %19)
  %21 = getelementptr inbounds nuw %struct.dict, ptr %20, i32 0, i32 2
  %22 = getelementptr inbounds [2 x i64], ptr %21, i64 0, i64 1
  %23 = load i64, ptr %22, align 8, !tbaa !30
  %24 = add i64 %16, %23
  %25 = icmp ugt i64 %24, 0
  br i1 %25, label %26, label %47

26:                                               ; preds = %3
  call void @llvm.lifetime.start.p0(i64 8, ptr %7) #8
  %27 = getelementptr inbounds nuw %struct.pubsubtype, ptr %2, i32 0, i32 1
  %28 = load ptr, ptr %27, align 8, !tbaa !70
  %29 = load ptr, ptr %4, align 8, !tbaa !5
  %30 = call ptr %28(ptr noundef %29)
  %31 = call ptr @dictGetSafeIterator(ptr noundef %30)
  store ptr %31, ptr %7, align 8, !tbaa !81
  call void @llvm.lifetime.start.p0(i64 8, ptr %8) #8
  br label %32

32:                                               ; preds = %36, %26
  %33 = load ptr, ptr %7, align 8, !tbaa !81
  %34 = call ptr @dictNext(ptr noundef %33)
  store ptr %34, ptr %8, align 8, !tbaa !78
  %35 = icmp ne ptr %34, null
  br i1 %35, label %36, label %45

36:                                               ; preds = %32
  call void @llvm.lifetime.start.p0(i64 8, ptr %9) #8
  %37 = load ptr, ptr %8, align 8, !tbaa !78
  %38 = call ptr @dictGetKey(ptr noundef %37)
  store ptr %38, ptr %9, align 8, !tbaa !33
  %39 = load ptr, ptr %4, align 8, !tbaa !5
  %40 = load ptr, ptr %9, align 8, !tbaa !33
  %41 = load i32, ptr %5, align 4, !tbaa !69
  %42 = call i32 @pubsubUnsubscribeChannel(ptr noundef %39, ptr noundef %40, i32 noundef %41, ptr noundef byval(%struct.pubsubtype) align 8 %2)
  %43 = load i32, ptr %6, align 4, !tbaa !69
  %44 = add nsw i32 %43, %42
  store i32 %44, ptr %6, align 4, !tbaa !69
  call void @llvm.lifetime.end.p0(i64 8, ptr %9) #8
  br label %32, !llvm.loop !86

45:                                               ; preds = %32
  %46 = load ptr, ptr %7, align 8, !tbaa !81
  call void @dictReleaseIterator(ptr noundef %46)
  call void @llvm.lifetime.end.p0(i64 8, ptr %8) #8
  call void @llvm.lifetime.end.p0(i64 8, ptr %7) #8
  br label %47

47:                                               ; preds = %45, %3
  %48 = load i32, ptr %5, align 4, !tbaa !69
  %49 = icmp ne i32 %48, 0
  br i1 %49, label %50, label %55

50:                                               ; preds = %47
  %51 = load i32, ptr %6, align 4, !tbaa !69
  %52 = icmp eq i32 %51, 0
  br i1 %52, label %53, label %55

53:                                               ; preds = %50
  %54 = load ptr, ptr %4, align 8, !tbaa !5
  call void @addReplyPubsubUnsubscribed(ptr noundef %54, ptr noundef null, ptr noundef byval(%struct.pubsubtype) align 8 %2)
  br label %55

55:                                               ; preds = %53, %50, %47
  %56 = load i32, ptr %6, align 4, !tbaa !69
  call void @llvm.lifetime.end.p0(i64 4, ptr %6) #8
  ret i32 %56
}