; Function Attrs: nounwind uwtable
define dso_local i32 @pubsubUnsubscribeAllChannelsInternal(ptr noundef %0, i32 noundef %1, ptr noundef readonly byval(%struct.pubsubtype) align 8 captures(none) %2) local_unnamed_addr #2 {
  %4 = getelementptr inbounds nuw i8, ptr %2, i64 8
  %5 = load ptr, ptr %4, align 8, !tbaa !67
  %6 = tail call ptr %5(ptr noundef %0) #9
  %7 = getelementptr inbounds nuw i8, ptr %6, i64 24
  %8 = load i64, ptr %7, align 8, !tbaa !28
  %9 = tail call ptr %5(ptr noundef %0) #9
  %10 = getelementptr inbounds nuw i8, ptr %9, i64 32
  %11 = load i64, ptr %10, align 8, !tbaa !28
  %12 = sub i64 0, %11
  %.not = icmp eq i64 %8, %12
  br i1 %.not, label %22, label %13

13:                                               ; preds = %3
  %14 = tail call ptr %5(ptr noundef %0) #9
  %15 = tail call ptr @dictGetSafeIterator(ptr noundef %14) #9
  %16 = tail call ptr @dictNext(ptr noundef %15) #9
  %.not1517 = icmp eq ptr %16, null
  br i1 %.not1517, label %._crit_edge, label %.lr.ph

.lr.ph:                                           ; preds = %13, %.lr.ph
  %17 = phi ptr [ %21, %.lr.ph ], [ %16, %13 ]
  %.118 = phi i32 [ %20, %.lr.ph ], [ 0, %13 ]
  %18 = tail call ptr @dictGetKey(ptr noundef nonnull %17) #9
  %19 = tail call i32 @pubsubUnsubscribeChannel(ptr noundef %0, ptr noundef %18, i32 noundef %1, ptr noundef nonnull byval(%struct.pubsubtype) align 8 %2)
  %20 = add nuw nsw i32 %19, %.118
  %21 = tail call ptr @dictNext(ptr noundef %15) #9
  %.not15 = icmp eq ptr %21, null
  br i1 %.not15, label %._crit_edge, label %.lr.ph, !llvm.loop !79

._crit_edge:                                      ; preds = %.lr.ph, %13
  %.1.lcssa = phi i32 [ 0, %13 ], [ %20, %.lr.ph ]
  tail call void @dictReleaseIterator(ptr noundef %15) #9
  br label %22

22:                                               ; preds = %._crit_edge, %3
  %.0 = phi i32 [ %.1.lcssa, %._crit_edge ], [ 0, %3 ]
  %23 = icmp ne i32 %1, 0
  %24 = icmp eq i32 %.0, 0
  %or.cond = select i1 %23, i1 %24, i1 false
  br i1 %or.cond, label %25, label %addReplyPubsubUnsubscribed.exit

25:                                               ; preds = %22
  %.sroa.3.0..sroa_idx = getelementptr inbounds nuw i8, ptr %2, i64 16
  %.sroa.3.0.copyload = load ptr, ptr %.sroa.3.0..sroa_idx, align 8
  %.sroa.416.0..sroa_idx = getelementptr inbounds nuw i8, ptr %2, i64 40
  %.sroa.416.0.copyload = load ptr, ptr %.sroa.416.0..sroa_idx, align 8
  %26 = getelementptr inbounds nuw i8, ptr %0, i64 8
  %27 = load i64, ptr %26, align 8, !tbaa !31
  %28 = or i64 %27, 70368744177664
  store i64 %28, ptr %26, align 8, !tbaa !31
  %29 = getelementptr inbounds nuw i8, ptr %0, i64 28
  %30 = load i32, ptr %29, align 4, !tbaa !32
  %31 = icmp eq i32 %30, 2
  br i1 %31, label %32, label %34

32:                                               ; preds = %25
  %33 = load ptr, ptr getelementptr inbounds nuw (i8, ptr @shared, i64 80904), align 8, !tbaa !33
  tail call void @addReply(ptr noundef nonnull %0, ptr noundef %33) #9
  br label %35

34:                                               ; preds = %25
  tail call void @addReplyPushLen(ptr noundef nonnull %0, i64 noundef 3) #9
  br label %35

35:                                               ; preds = %34, %32
  %36 = load ptr, ptr %.sroa.416.0.copyload, align 8, !tbaa !33
  tail call void @addReply(ptr noundef nonnull %0, ptr noundef %36) #9
  tail call void @addReplyNull(ptr noundef nonnull %0) #9
  %37 = tail call i32 %.sroa.3.0.copyload(ptr noundef nonnull %0) #9
  %38 = sext i32 %37 to i64
  tail call void @addReplyLongLong(ptr noundef nonnull %0, i64 noundef %38) #9
  %39 = and i64 %27, 70368744177664
  %.not13.i = icmp eq i64 %39, 0
  br i1 %.not13.i, label %40, label %addReplyPubsubUnsubscribed.exit

40:                                               ; preds = %35
  %41 = load i64, ptr %26, align 8, !tbaa !31
  %42 = and i64 %41, -70368744177665
  store i64 %42, ptr %26, align 8, !tbaa !31
  br label %addReplyPubsubUnsubscribed.exit

addReplyPubsubUnsubscribed.exit:                  ; preds = %40, %35, %22
  ret i32 %.0
}